ARM GAS  /tmp/cceJOLQv.s 			page 1


   1              		.cpu cortex-m4
   2              		.eabi_attribute 27, 1
   3              		.eabi_attribute 28, 1
   4              		.eabi_attribute 20, 1
   5              		.eabi_attribute 21, 1
   6              		.eabi_attribute 23, 3
   7              		.eabi_attribute 24, 1
   8              		.eabi_attribute 25, 1
   9              		.eabi_attribute 26, 1
  10              		.eabi_attribute 30, 1
  11              		.eabi_attribute 34, 1
  12              		.eabi_attribute 18, 4
  13              		.file	"usart.c"
  14              		.text
  15              	.Ltext0:
  16              		.cfi_sections	.debug_frame
  17              		.section	.text.MX_USART2_UART_Init,"ax",%progbits
  18              		.align	1
  19              		.global	MX_USART2_UART_Init
  20              		.arch armv7e-m
  21              		.syntax unified
  22              		.thumb
  23              		.thumb_func
  24              		.fpu fpv4-sp-d16
  26              	MX_USART2_UART_Init:
  27              	.LFB126:
  28              		.file 1 "Src/usart.c"
   1:Src/usart.c   **** /**
   2:Src/usart.c   ****   ******************************************************************************
   3:Src/usart.c   ****   * File Name          : USART.c
   4:Src/usart.c   ****   * Description        : This file provides code for the configuration
   5:Src/usart.c   ****   *                      of the USART instances.
   6:Src/usart.c   ****   ******************************************************************************
   7:Src/usart.c   ****   ** This notice applies to any and all portions of this file
   8:Src/usart.c   ****   * that are not between comment pairs USER CODE BEGIN and
   9:Src/usart.c   ****   * USER CODE END. Other portions of this file, whether 
  10:Src/usart.c   ****   * inserted by the user or by software development tools
  11:Src/usart.c   ****   * are owned by their respective copyright owners.
  12:Src/usart.c   ****   *
  13:Src/usart.c   ****   * COPYRIGHT(c) 2021 STMicroelectronics
  14:Src/usart.c   ****   *
  15:Src/usart.c   ****   * Redistribution and use in source and binary forms, with or without modification,
  16:Src/usart.c   ****   * are permitted provided that the following conditions are met:
  17:Src/usart.c   ****   *   1. Redistributions of source code must retain the above copyright notice,
  18:Src/usart.c   ****   *      this list of conditions and the following disclaimer.
  19:Src/usart.c   ****   *   2. Redistributions in binary form must reproduce the above copyright notice,
  20:Src/usart.c   ****   *      this list of conditions and the following disclaimer in the documentation
  21:Src/usart.c   ****   *      and/or other materials provided with the distribution.
  22:Src/usart.c   ****   *   3. Neither the name of STMicroelectronics nor the names of its contributors
  23:Src/usart.c   ****   *      may be used to endorse or promote products derived from this software
  24:Src/usart.c   ****   *      without specific prior written permission.
  25:Src/usart.c   ****   *
  26:Src/usart.c   ****   * THIS SOFTWARE IS PROVIDED BY THE COPYRIGHT HOLDERS AND CONTRIBUTORS "AS IS"
  27:Src/usart.c   ****   * AND ANY EXPRESS OR IMPLIED WARRANTIES, INCLUDING, BUT NOT LIMITED TO, THE
  28:Src/usart.c   ****   * IMPLIED WARRANTIES OF MERCHANTABILITY AND FITNESS FOR A PARTICULAR PURPOSE ARE
  29:Src/usart.c   ****   * DISCLAIMED. IN NO EVENT SHALL THE COPYRIGHT HOLDER OR CONTRIBUTORS BE LIABLE
  30:Src/usart.c   ****   * FOR ANY DIRECT, INDIRECT, INCIDENTAL, SPECIAL, EXEMPLARY, OR CONSEQUENTIAL
ARM GAS  /tmp/cceJOLQv.s 			page 2


  31:Src/usart.c   ****   * DAMAGES (INCLUDING, BUT NOT LIMITED TO, PROCUREMENT OF SUBSTITUTE GOODS OR
  32:Src/usart.c   ****   * SERVICES; LOSS OF USE, DATA, OR PROFITS; OR BUSINESS INTERRUPTION) HOWEVER
  33:Src/usart.c   ****   * CAUSED AND ON ANY THEORY OF LIABILITY, WHETHER IN CONTRACT, STRICT LIABILITY,
  34:Src/usart.c   ****   * OR TORT (INCLUDING NEGLIGENCE OR OTHERWISE) ARISING IN ANY WAY OUT OF THE USE
  35:Src/usart.c   ****   * OF THIS SOFTWARE, EVEN IF ADVISED OF THE POSSIBILITY OF SUCH DAMAGE.
  36:Src/usart.c   ****   *
  37:Src/usart.c   ****   ******************************************************************************
  38:Src/usart.c   ****   */
  39:Src/usart.c   **** 
  40:Src/usart.c   **** /* Includes ------------------------------------------------------------------*/
  41:Src/usart.c   **** #include "usart.h"
  42:Src/usart.c   **** 
  43:Src/usart.c   **** /* USER CODE BEGIN 0 */
  44:Src/usart.c   **** 
  45:Src/usart.c   **** /* USER CODE END 0 */
  46:Src/usart.c   **** 
  47:Src/usart.c   **** UART_HandleTypeDef huart2;
  48:Src/usart.c   **** 
  49:Src/usart.c   **** /* USART2 init function */
  50:Src/usart.c   **** 
  51:Src/usart.c   **** void MX_USART2_UART_Init(void)
  52:Src/usart.c   **** {
  29              		.loc 1 52 1 view -0
  30              		.cfi_startproc
  31              		@ args = 0, pretend = 0, frame = 0
  32              		@ frame_needed = 0, uses_anonymous_args = 0
  33 0000 08B5     		push	{r3, lr}
  34              	.LCFI0:
  35              		.cfi_def_cfa_offset 8
  36              		.cfi_offset 3, -8
  37              		.cfi_offset 14, -4
  53:Src/usart.c   **** 
  54:Src/usart.c   ****   huart2.Instance = USART2;
  38              		.loc 1 54 3 view .LVU1
  39              		.loc 1 54 19 is_stmt 0 view .LVU2
  40 0002 0A48     		ldr	r0, .L5
  41 0004 0A4B     		ldr	r3, .L5+4
  42 0006 0360     		str	r3, [r0]
  55:Src/usart.c   ****   huart2.Init.BaudRate = 115200;
  43              		.loc 1 55 3 is_stmt 1 view .LVU3
  44              		.loc 1 55 24 is_stmt 0 view .LVU4
  45 0008 4FF4E133 		mov	r3, #115200
  46 000c 4360     		str	r3, [r0, #4]
  56:Src/usart.c   ****   huart2.Init.WordLength = UART_WORDLENGTH_8B;
  47              		.loc 1 56 3 is_stmt 1 view .LVU5
  48              		.loc 1 56 26 is_stmt 0 view .LVU6
  49 000e 0023     		movs	r3, #0
  50 0010 8360     		str	r3, [r0, #8]
  57:Src/usart.c   ****   huart2.Init.StopBits = UART_STOPBITS_1;
  51              		.loc 1 57 3 is_stmt 1 view .LVU7
  52              		.loc 1 57 24 is_stmt 0 view .LVU8
  53 0012 C360     		str	r3, [r0, #12]
  58:Src/usart.c   ****   huart2.Init.Parity = UART_PARITY_NONE;
  54              		.loc 1 58 3 is_stmt 1 view .LVU9
  55              		.loc 1 58 22 is_stmt 0 view .LVU10
  56 0014 0361     		str	r3, [r0, #16]
  59:Src/usart.c   ****   huart2.Init.Mode = UART_MODE_TX_RX;
ARM GAS  /tmp/cceJOLQv.s 			page 3


  57              		.loc 1 59 3 is_stmt 1 view .LVU11
  58              		.loc 1 59 20 is_stmt 0 view .LVU12
  59 0016 0C22     		movs	r2, #12
  60 0018 4261     		str	r2, [r0, #20]
  60:Src/usart.c   ****   huart2.Init.HwFlowCtl = UART_HWCONTROL_NONE;
  61              		.loc 1 60 3 is_stmt 1 view .LVU13
  62              		.loc 1 60 25 is_stmt 0 view .LVU14
  63 001a 8361     		str	r3, [r0, #24]
  61:Src/usart.c   ****   huart2.Init.OverSampling = UART_OVERSAMPLING_16;
  64              		.loc 1 61 3 is_stmt 1 view .LVU15
  65              		.loc 1 61 28 is_stmt 0 view .LVU16
  66 001c C361     		str	r3, [r0, #28]
  62:Src/usart.c   ****   if (HAL_UART_Init(&huart2) != HAL_OK)
  67              		.loc 1 62 3 is_stmt 1 view .LVU17
  68              		.loc 1 62 7 is_stmt 0 view .LVU18
  69 001e FFF7FEFF 		bl	HAL_UART_Init
  70              	.LVL0:
  71              		.loc 1 62 6 view .LVU19
  72 0022 00B9     		cbnz	r0, .L4
  73              	.L1:
  63:Src/usart.c   ****   {
  64:Src/usart.c   ****     Error_Handler();
  65:Src/usart.c   ****   }
  66:Src/usart.c   **** 
  67:Src/usart.c   **** }
  74              		.loc 1 67 1 view .LVU20
  75 0024 08BD     		pop	{r3, pc}
  76              	.L4:
  64:Src/usart.c   ****   }
  77              		.loc 1 64 5 is_stmt 1 view .LVU21
  78 0026 FFF7FEFF 		bl	Error_Handler
  79              	.LVL1:
  80              		.loc 1 67 1 is_stmt 0 view .LVU22
  81 002a FBE7     		b	.L1
  82              	.L6:
  83              		.align	2
  84              	.L5:
  85 002c 00000000 		.word	.LANCHOR0
  86 0030 00440040 		.word	1073759232
  87              		.cfi_endproc
  88              	.LFE126:
  90              		.section	.text.HAL_UART_MspInit,"ax",%progbits
  91              		.align	1
  92              		.global	HAL_UART_MspInit
  93              		.syntax unified
  94              		.thumb
  95              		.thumb_func
  96              		.fpu fpv4-sp-d16
  98              	HAL_UART_MspInit:
  99              	.LVL2:
 100              	.LFB127:
  68:Src/usart.c   **** 
  69:Src/usart.c   **** void HAL_UART_MspInit(UART_HandleTypeDef* uartHandle)
  70:Src/usart.c   **** {
 101              		.loc 1 70 1 is_stmt 1 view -0
 102              		.cfi_startproc
 103              		@ args = 0, pretend = 0, frame = 32
ARM GAS  /tmp/cceJOLQv.s 			page 4


 104              		@ frame_needed = 0, uses_anonymous_args = 0
 105              		.loc 1 70 1 is_stmt 0 view .LVU24
 106 0000 00B5     		push	{lr}
 107              	.LCFI1:
 108              		.cfi_def_cfa_offset 4
 109              		.cfi_offset 14, -4
 110 0002 89B0     		sub	sp, sp, #36
 111              	.LCFI2:
 112              		.cfi_def_cfa_offset 40
  71:Src/usart.c   **** 
  72:Src/usart.c   ****   GPIO_InitTypeDef GPIO_InitStruct = {0};
 113              		.loc 1 72 3 is_stmt 1 view .LVU25
 114              		.loc 1 72 20 is_stmt 0 view .LVU26
 115 0004 0023     		movs	r3, #0
 116 0006 0393     		str	r3, [sp, #12]
 117 0008 0493     		str	r3, [sp, #16]
 118 000a 0593     		str	r3, [sp, #20]
 119 000c 0693     		str	r3, [sp, #24]
 120 000e 0793     		str	r3, [sp, #28]
  73:Src/usart.c   ****   if(uartHandle->Instance==USART2)
 121              		.loc 1 73 3 is_stmt 1 view .LVU27
 122              		.loc 1 73 16 is_stmt 0 view .LVU28
 123 0010 0268     		ldr	r2, [r0]
 124              		.loc 1 73 5 view .LVU29
 125 0012 164B     		ldr	r3, .L11
 126 0014 9A42     		cmp	r2, r3
 127 0016 02D0     		beq	.L10
 128              	.LVL3:
 129              	.L7:
  74:Src/usart.c   ****   {
  75:Src/usart.c   ****   /* USER CODE BEGIN USART2_MspInit 0 */
  76:Src/usart.c   **** 
  77:Src/usart.c   ****   /* USER CODE END USART2_MspInit 0 */
  78:Src/usart.c   ****     /* USART2 clock enable */
  79:Src/usart.c   ****     __HAL_RCC_USART2_CLK_ENABLE();
  80:Src/usart.c   ****   
  81:Src/usart.c   ****     __HAL_RCC_GPIOA_CLK_ENABLE();
  82:Src/usart.c   ****     /**USART2 GPIO Configuration    
  83:Src/usart.c   ****     PA2     ------> USART2_TX
  84:Src/usart.c   ****     PA3     ------> USART2_RX 
  85:Src/usart.c   ****     */
  86:Src/usart.c   ****     GPIO_InitStruct.Pin = USART_TX_Pin|USART_RX_Pin;
  87:Src/usart.c   ****     GPIO_InitStruct.Mode = GPIO_MODE_AF_PP;
  88:Src/usart.c   ****     GPIO_InitStruct.Pull = GPIO_PULLUP;
  89:Src/usart.c   ****     GPIO_InitStruct.Speed = GPIO_SPEED_FREQ_VERY_HIGH;
  90:Src/usart.c   ****     GPIO_InitStruct.Alternate = GPIO_AF7_USART2;
  91:Src/usart.c   ****     HAL_GPIO_Init(GPIOA, &GPIO_InitStruct);
  92:Src/usart.c   **** 
  93:Src/usart.c   ****   /* USER CODE BEGIN USART2_MspInit 1 */
  94:Src/usart.c   **** 
  95:Src/usart.c   ****   /* USER CODE END USART2_MspInit 1 */
  96:Src/usart.c   ****   }
  97:Src/usart.c   **** }
 130              		.loc 1 97 1 view .LVU30
 131 0018 09B0     		add	sp, sp, #36
 132              	.LCFI3:
 133              		.cfi_remember_state
ARM GAS  /tmp/cceJOLQv.s 			page 5


 134              		.cfi_def_cfa_offset 4
 135              		@ sp needed
 136 001a 5DF804FB 		ldr	pc, [sp], #4
 137              	.LVL4:
 138              	.L10:
 139              	.LCFI4:
 140              		.cfi_restore_state
  79:Src/usart.c   ****   
 141              		.loc 1 79 5 is_stmt 1 view .LVU31
 142              	.LBB2:
  79:Src/usart.c   ****   
 143              		.loc 1 79 5 view .LVU32
 144 001e 0021     		movs	r1, #0
 145 0020 0191     		str	r1, [sp, #4]
  79:Src/usart.c   ****   
 146              		.loc 1 79 5 view .LVU33
 147 0022 03F5FA33 		add	r3, r3, #128000
 148 0026 1A6C     		ldr	r2, [r3, #64]
 149 0028 42F40032 		orr	r2, r2, #131072
 150 002c 1A64     		str	r2, [r3, #64]
  79:Src/usart.c   ****   
 151              		.loc 1 79 5 view .LVU34
 152 002e 1A6C     		ldr	r2, [r3, #64]
 153 0030 02F40032 		and	r2, r2, #131072
 154 0034 0192     		str	r2, [sp, #4]
  79:Src/usart.c   ****   
 155              		.loc 1 79 5 view .LVU35
 156 0036 019A     		ldr	r2, [sp, #4]
 157              	.LBE2:
  79:Src/usart.c   ****   
 158              		.loc 1 79 5 view .LVU36
  81:Src/usart.c   ****     /**USART2 GPIO Configuration    
 159              		.loc 1 81 5 view .LVU37
 160              	.LBB3:
  81:Src/usart.c   ****     /**USART2 GPIO Configuration    
 161              		.loc 1 81 5 view .LVU38
 162 0038 0291     		str	r1, [sp, #8]
  81:Src/usart.c   ****     /**USART2 GPIO Configuration    
 163              		.loc 1 81 5 view .LVU39
 164 003a 1A6B     		ldr	r2, [r3, #48]
 165 003c 42F00102 		orr	r2, r2, #1
 166 0040 1A63     		str	r2, [r3, #48]
  81:Src/usart.c   ****     /**USART2 GPIO Configuration    
 167              		.loc 1 81 5 view .LVU40
 168 0042 1B6B     		ldr	r3, [r3, #48]
 169 0044 03F00103 		and	r3, r3, #1
 170 0048 0293     		str	r3, [sp, #8]
  81:Src/usart.c   ****     /**USART2 GPIO Configuration    
 171              		.loc 1 81 5 view .LVU41
 172 004a 029B     		ldr	r3, [sp, #8]
 173              	.LBE3:
  81:Src/usart.c   ****     /**USART2 GPIO Configuration    
 174              		.loc 1 81 5 view .LVU42
  86:Src/usart.c   ****     GPIO_InitStruct.Mode = GPIO_MODE_AF_PP;
 175              		.loc 1 86 5 view .LVU43
  86:Src/usart.c   ****     GPIO_InitStruct.Mode = GPIO_MODE_AF_PP;
 176              		.loc 1 86 25 is_stmt 0 view .LVU44
ARM GAS  /tmp/cceJOLQv.s 			page 6


 177 004c 0C23     		movs	r3, #12
 178 004e 0393     		str	r3, [sp, #12]
  87:Src/usart.c   ****     GPIO_InitStruct.Pull = GPIO_PULLUP;
 179              		.loc 1 87 5 is_stmt 1 view .LVU45
  87:Src/usart.c   ****     GPIO_InitStruct.Pull = GPIO_PULLUP;
 180              		.loc 1 87 26 is_stmt 0 view .LVU46
 181 0050 0223     		movs	r3, #2
 182 0052 0493     		str	r3, [sp, #16]
  88:Src/usart.c   ****     GPIO_InitStruct.Speed = GPIO_SPEED_FREQ_VERY_HIGH;
 183              		.loc 1 88 5 is_stmt 1 view .LVU47
  88:Src/usart.c   ****     GPIO_InitStruct.Speed = GPIO_SPEED_FREQ_VERY_HIGH;
 184              		.loc 1 88 26 is_stmt 0 view .LVU48
 185 0054 0123     		movs	r3, #1
 186 0056 0593     		str	r3, [sp, #20]
  89:Src/usart.c   ****     GPIO_InitStruct.Alternate = GPIO_AF7_USART2;
 187              		.loc 1 89 5 is_stmt 1 view .LVU49
  89:Src/usart.c   ****     GPIO_InitStruct.Alternate = GPIO_AF7_USART2;
 188              		.loc 1 89 27 is_stmt 0 view .LVU50
 189 0058 0323     		movs	r3, #3
 190 005a 0693     		str	r3, [sp, #24]
  90:Src/usart.c   ****     HAL_GPIO_Init(GPIOA, &GPIO_InitStruct);
 191              		.loc 1 90 5 is_stmt 1 view .LVU51
  90:Src/usart.c   ****     HAL_GPIO_Init(GPIOA, &GPIO_InitStruct);
 192              		.loc 1 90 31 is_stmt 0 view .LVU52
 193 005c 0723     		movs	r3, #7
 194 005e 0793     		str	r3, [sp, #28]
  91:Src/usart.c   **** 
 195              		.loc 1 91 5 is_stmt 1 view .LVU53
 196 0060 03A9     		add	r1, sp, #12
 197 0062 0348     		ldr	r0, .L11+4
 198              	.LVL5:
  91:Src/usart.c   **** 
 199              		.loc 1 91 5 is_stmt 0 view .LVU54
 200 0064 FFF7FEFF 		bl	HAL_GPIO_Init
 201              	.LVL6:
 202              		.loc 1 97 1 view .LVU55
 203 0068 D6E7     		b	.L7
 204              	.L12:
 205 006a 00BF     		.align	2
 206              	.L11:
 207 006c 00440040 		.word	1073759232
 208 0070 00000240 		.word	1073872896
 209              		.cfi_endproc
 210              	.LFE127:
 212              		.section	.text.HAL_UART_MspDeInit,"ax",%progbits
 213              		.align	1
 214              		.global	HAL_UART_MspDeInit
 215              		.syntax unified
 216              		.thumb
 217              		.thumb_func
 218              		.fpu fpv4-sp-d16
 220              	HAL_UART_MspDeInit:
 221              	.LVL7:
 222              	.LFB128:
  98:Src/usart.c   **** 
  99:Src/usart.c   **** void HAL_UART_MspDeInit(UART_HandleTypeDef* uartHandle)
 100:Src/usart.c   **** {
ARM GAS  /tmp/cceJOLQv.s 			page 7


 223              		.loc 1 100 1 is_stmt 1 view -0
 224              		.cfi_startproc
 225              		@ args = 0, pretend = 0, frame = 0
 226              		@ frame_needed = 0, uses_anonymous_args = 0
 227              		.loc 1 100 1 is_stmt 0 view .LVU57
 228 0000 08B5     		push	{r3, lr}
 229              	.LCFI5:
 230              		.cfi_def_cfa_offset 8
 231              		.cfi_offset 3, -8
 232              		.cfi_offset 14, -4
 101:Src/usart.c   **** 
 102:Src/usart.c   ****   if(uartHandle->Instance==USART2)
 233              		.loc 1 102 3 is_stmt 1 view .LVU58
 234              		.loc 1 102 16 is_stmt 0 view .LVU59
 235 0002 0268     		ldr	r2, [r0]
 236              		.loc 1 102 5 view .LVU60
 237 0004 064B     		ldr	r3, .L17
 238 0006 9A42     		cmp	r2, r3
 239 0008 00D0     		beq	.L16
 240              	.LVL8:
 241              	.L13:
 103:Src/usart.c   ****   {
 104:Src/usart.c   ****   /* USER CODE BEGIN USART2_MspDeInit 0 */
 105:Src/usart.c   **** 
 106:Src/usart.c   ****   /* USER CODE END USART2_MspDeInit 0 */
 107:Src/usart.c   ****     /* Peripheral clock disable */
 108:Src/usart.c   ****     __HAL_RCC_USART2_CLK_DISABLE();
 109:Src/usart.c   ****   
 110:Src/usart.c   ****     /**USART2 GPIO Configuration    
 111:Src/usart.c   ****     PA2     ------> USART2_TX
 112:Src/usart.c   ****     PA3     ------> USART2_RX 
 113:Src/usart.c   ****     */
 114:Src/usart.c   ****     HAL_GPIO_DeInit(GPIOA, USART_TX_Pin|USART_RX_Pin);
 115:Src/usart.c   **** 
 116:Src/usart.c   ****   /* USER CODE BEGIN USART2_MspDeInit 1 */
 117:Src/usart.c   **** 
 118:Src/usart.c   ****   /* USER CODE END USART2_MspDeInit 1 */
 119:Src/usart.c   ****   }
 120:Src/usart.c   **** } 
 242              		.loc 1 120 1 view .LVU61
 243 000a 08BD     		pop	{r3, pc}
 244              	.LVL9:
 245              	.L16:
 108:Src/usart.c   ****   
 246              		.loc 1 108 5 is_stmt 1 view .LVU62
 247 000c 054A     		ldr	r2, .L17+4
 248 000e 136C     		ldr	r3, [r2, #64]
 249 0010 23F40033 		bic	r3, r3, #131072
 250 0014 1364     		str	r3, [r2, #64]
 114:Src/usart.c   **** 
 251              		.loc 1 114 5 view .LVU63
 252 0016 0C21     		movs	r1, #12
 253 0018 0348     		ldr	r0, .L17+8
 254              	.LVL10:
 114:Src/usart.c   **** 
 255              		.loc 1 114 5 is_stmt 0 view .LVU64
 256 001a FFF7FEFF 		bl	HAL_GPIO_DeInit
ARM GAS  /tmp/cceJOLQv.s 			page 8


 257              	.LVL11:
 258              		.loc 1 120 1 view .LVU65
 259 001e F4E7     		b	.L13
 260              	.L18:
 261              		.align	2
 262              	.L17:
 263 0020 00440040 		.word	1073759232
 264 0024 00380240 		.word	1073887232
 265 0028 00000240 		.word	1073872896
 266              		.cfi_endproc
 267              	.LFE128:
 269              		.global	huart2
 270              		.section	.bss.huart2,"aw",%nobits
 271              		.align	2
 272              		.set	.LANCHOR0,. + 0
 275              	huart2:
 276 0000 00000000 		.space	64
 276      00000000 
 276      00000000 
 276      00000000 
 276      00000000 
 277              		.text
 278              	.Letext0:
 279              		.file 2 "/usr/arm-none-eabi/include/machine/_default_types.h"
 280              		.file 3 "/usr/arm-none-eabi/include/sys/_stdint.h"
 281              		.file 4 "Drivers/CMSIS/Device/ST/STM32F4xx/Include/stm32f446xx.h"
 282              		.file 5 "Drivers/STM32F4xx_HAL_Driver/Inc/stm32f4xx_hal_def.h"
 283              		.file 6 "Drivers/STM32F4xx_HAL_Driver/Inc/stm32f4xx_hal_gpio.h"
 284              		.file 7 "Drivers/STM32F4xx_HAL_Driver/Inc/stm32f4xx_hal_dma.h"
 285              		.file 8 "Drivers/STM32F4xx_HAL_Driver/Inc/stm32f4xx_hal_uart.h"
 286              		.file 9 "Inc/usart.h"
 287              		.file 10 "Inc/main.h"
ARM GAS  /tmp/cceJOLQv.s 			page 9

